target datalayout = "e-m:e-p270:32:32-p271:32:32-p272:64:64-i64:64-i128:128-f80:128-n8:16:32:64-S128"
target triple = "x86_64-pc-linux-gnu"

%struct._generic_SUNAdaptController = type { ptr, ptr, ptr }
%struct.SUNAdaptControllerContent_MRIHTol_ = type { ptr, ptr, double, double, double }

@.str = private unnamed_addr constant [44 x i8] c"Multirate H-Tol SUNAdaptController module:\0A\00", align 1
@.str.1 = private unnamed_addr constant [27 x i8] c"  inner_max_relch  = %16g\0A\00", align 1
@.str.2 = private unnamed_addr constant [27 x i8] c"  inner_min_tolfac = %16g\0A\00", align 1
@.str.3 = private unnamed_addr constant [27 x i8] c"  inner_max_tolfac = %16g\0A\00", align 1
@.str.4 = private unnamed_addr constant [24 x i8] c"\0ASlow step controller:\0A\00", align 1
@.str.5 = private unnamed_addr constant [29 x i8] c"\0AFast tolerance controller:\0A\00", align 1

; Function Attrs: nounwind uwtable
define i32 @SUNAdaptController_Write_MRIHTol(ptr noundef %0, ptr noundef %1) #0 {
  %3 = alloca ptr, align 8
  %4 = alloca ptr, align 8
  %5 = alloca ptr, align 8
  store ptr %0, ptr %3, align 8, !tbaa !3
  store ptr %1, ptr %4, align 8, !tbaa !38
  call void @llvm.lifetime.start.p0(i64 8, ptr %5) #5
  %6 = load ptr, ptr %3, align 8, !tbaa !3
  %7 = getelementptr inbounds nuw %struct._generic_SUNAdaptController, ptr %6, i32 0, i32 2
  %8 = load ptr, ptr %7, align 8, !tbaa !37
  store ptr %8, ptr %5, align 8, !tbaa !8
  %9 = load ptr, ptr %4, align 8, !tbaa !38
  %10 = call i32 (ptr, ptr, ...) @fprintf(ptr noundef %9, ptr noundef @.str) #5
  %11 = load ptr, ptr %4, align 8, !tbaa !38
  %12 = load ptr, ptr %3, align 8, !tbaa !3
  %13 = getelementptr inbounds nuw %struct._generic_SUNAdaptController, ptr %12, i32 0, i32 0
  %14 = load ptr, ptr %13, align 8, !tbaa !31
  %15 = getelementptr inbounds nuw %struct.SUNAdaptControllerContent_MRIHTol_, ptr %14, i32 0, i32 2
  %16 = load double, ptr %15, align 8, !tbaa !28
  %17 = call i32 (ptr, ptr, ...) @fprintf(ptr noundef %11, ptr noundef @.str.1, double noundef %16) #5
  %18 = load ptr, ptr %4, align 8, !tbaa !38
  %19 = load ptr, ptr %3, align 8, !tbaa !3
  %20 = getelementptr inbounds nuw %struct._generic_SUNAdaptController, ptr %19, i32 0, i32 0
  %21 = load ptr, ptr %20, align 8, !tbaa !31
  %22 = getelementptr inbounds nuw %struct.SUNAdaptControllerContent_MRIHTol_, ptr %21, i32 0, i32 3
  %23 = load double, ptr %22, align 8, !tbaa !29
  %24 = call i32 (ptr, ptr, ...) @fprintf(ptr noundef %18, ptr noundef @.str.2, double noundef %23) #5
  %25 = load ptr, ptr %4, align 8, !tbaa !38
  %26 = load ptr, ptr %3, align 8, !tbaa !3
  %27 = getelementptr inbounds nuw %struct._generic_SUNAdaptController, ptr %26, i32 0, i32 0
  %28 = load ptr, ptr %27, align 8, !tbaa !31
  %29 = getelementptr inbounds nuw %struct.SUNAdaptControllerContent_MRIHTol_, ptr %28, i32 0, i32 4
  %30 = load double, ptr %29, align 8, !tbaa !30
  %31 = call i32 (ptr, ptr, ...) @fprintf(ptr noundef %25, ptr noundef @.str.3, double noundef %30) #5
  %32 = load ptr, ptr %4, align 8, !tbaa !38
  %33 = call i32 (ptr, ptr, ...) @fprintf(ptr noundef %32, ptr noundef @.str.4) #5
  %34 = load ptr, ptr %3, align 8, !tbaa !3
  %35 = getelementptr inbounds nuw %struct._generic_SUNAdaptController, ptr %34, i32 0, i32 0
  %36 = load ptr, ptr %35, align 8, !tbaa !31
  %37 = getelementptr inbounds nuw %struct.SUNAdaptControllerContent_MRIHTol_, ptr %36, i32 0, i32 0
  %38 = load ptr, ptr %37, align 8, !tbaa !24
  %39 = load ptr, ptr %4, align 8, !tbaa !38
  %40 = call i32 @SUNAdaptController_Write(ptr noundef %38, ptr noundef %39)
  %41 = load ptr, ptr %4, align 8, !tbaa !38
  %42 = call i32 (ptr, ptr, ...) @fprintf(ptr noundef %41, ptr noundef @.str.5) #5
  %43 = load ptr, ptr %3, align 8, !tbaa !3
  %44 = getelementptr inbounds nuw %struct._generic_SUNAdaptController, ptr %43, i32 0, i32 0
  %45 = load ptr, ptr %44, align 8, !tbaa !31
  %46 = getelementptr inbounds nuw %struct.SUNAdaptControllerContent_MRIHTol_, ptr %45, i32 0, i32 1
  %47 = load ptr, ptr %46, align 8, !tbaa !27
  %48 = load ptr, ptr %4, align 8, !tbaa !38
  %49 = call i32 @SUNAdaptController_Write(ptr noundef %47, ptr noundef %48)
  call void @llvm.lifetime.end.p0(i64 8, ptr %5) #5
  ret i32 0
}