; Function Attrs: nounwind uwtable
define noundef i32 @SUNAdaptController_Write_MRIHTol(ptr noundef readonly captures(none) %0, ptr noundef %1) #0 {
  %3 = tail call i64 @fwrite(ptr nonnull @.str, i64 43, i64 1, ptr %1)
  %4 = load ptr, ptr %0, align 8, !tbaa !27
  %5 = getelementptr inbounds nuw i8, ptr %4, i64 16
  %6 = load double, ptr %5, align 8, !tbaa !24
  %7 = tail call i32 (ptr, ptr, ...) @fprintf(ptr noundef %1, ptr noundef nonnull @.str.1, double noundef %6) #9
  %8 = load ptr, ptr %0, align 8, !tbaa !27
  %9 = getelementptr inbounds nuw i8, ptr %8, i64 24
  %10 = load double, ptr %9, align 8, !tbaa !25
  %11 = tail call i32 (ptr, ptr, ...) @fprintf(ptr noundef %1, ptr noundef nonnull @.str.2, double noundef %10) #9
  %12 = load ptr, ptr %0, align 8, !tbaa !27
  %13 = getelementptr inbounds nuw i8, ptr %12, i64 32
  %14 = load double, ptr %13, align 8, !tbaa !26
  %15 = tail call i32 (ptr, ptr, ...) @fprintf(ptr noundef %1, ptr noundef nonnull @.str.3, double noundef %14) #9
  %16 = tail call i64 @fwrite(ptr nonnull @.str.4, i64 23, i64 1, ptr %1)
  %17 = load ptr, ptr %0, align 8, !tbaa !27
  %18 = load ptr, ptr %17, align 8, !tbaa !19
  %19 = tail call i32 @SUNAdaptController_Write(ptr noundef %18, ptr noundef %1) #9
  %20 = tail call i64 @fwrite(ptr nonnull @.str.5, i64 28, i64 1, ptr %1)
  %21 = load ptr, ptr %0, align 8, !tbaa !27
  %22 = getelementptr inbounds nuw i8, ptr %21, i64 8
  %23 = load ptr, ptr %22, align 8, !tbaa !23
  %24 = tail call i32 @SUNAdaptController_Write(ptr noundef %23, ptr noundef %1) #9
  ret i32 0
}